; Function Attrs: nofree norecurse nosync nounwind memory(read, inaccessiblemem: none) uwtable
define range(i32 0, 2) i32 @Gia_ManIsNormalized(ptr noundef readonly captures(none) %0) local_unnamed_addr #3 {
  %2 = getelementptr i8, ptr %0, i64 64
  %.val16 = load ptr, ptr %2, align 8, !tbaa !30
  %3 = getelementptr i8, ptr %.val16, i64 4
  %.val16.val = load i32, ptr %3, align 4, !tbaa !29
  %4 = getelementptr i8, ptr %0, i64 32
  %smax = tail call i32 @llvm.smax.i32(i32 %.val16.val, i32 0)
  %wide.trip.count = zext nneg i32 %smax to i64
  br label %5

5:                                                ; preds = %6, %1
  %indvars.iv = phi i64 [ %indvars.iv.next, %6 ], [ 0, %1 ]
  %exitcond.not = icmp eq i64 %indvars.iv, %wide.trip.count
  br i1 %exitcond.not, label %9, label %6

6:                                                ; preds = %5
  %indvars.iv.next = add nuw nsw i64 %indvars.iv, 1
  %.val18 = load ptr, ptr %4, align 8, !tbaa !39
  %7 = getelementptr inbounds nuw %struct.Gia_Obj_t_, ptr %.val18, i64 %indvars.iv.next
  %.val20 = load i64, ptr %7, align 4
  %8 = and i64 %.val20, 2684354559
  %narrow.i.not = icmp eq i64 %8, 2684354559
  br i1 %narrow.i.not, label %5, label %.loopexit, !llvm.loop !40

9:                                                ; preds = %5
  %10 = getelementptr inbounds nuw i8, ptr %0, i64 72
  %11 = load ptr, ptr %10, align 8, !tbaa !31
  %12 = getelementptr i8, ptr %11, i64 4
  %.val.i = load i32, ptr %12, align 4, !tbaa !29
  %13 = icmp sgt i32 %.val.i, 0
  br i1 %13, label %.lr.ph, label %.loopexit

.lr.ph:                                           ; preds = %9
  %14 = getelementptr inbounds nuw i8, ptr %0, i64 24
  %15 = load i32, ptr %14, align 8, !tbaa !41
  %16 = add i32 %.val.i, %.val16.val
  %17 = xor i32 %16, -1
  %invariant.op = add i32 %15, %17
  %18 = add i32 %.val16.val, 1
  %.reass = add i32 %18, %invariant.op
  %.val19 = load ptr, ptr %4, align 8, !tbaa !39
  %19 = sext i32 %.reass to i64
  %wide.trip.count34 = zext nneg i32 %.val.i to i64
  %invariant.gep = getelementptr %struct.Gia_Obj_t_, ptr %.val19, i64 %19
  br label %21

20:                                               ; preds = %21
  %indvars.iv.next32 = add nuw nsw i64 %indvars.iv31, 1
  %exitcond35.not = icmp eq i64 %indvars.iv.next32, %wide.trip.count34
  br i1 %exitcond35.not, label %.loopexit, label %21, !llvm.loop !42

21:                                               ; preds = %.lr.ph, %20
  %indvars.iv31 = phi i64 [ 0, %.lr.ph ], [ %indvars.iv.next32, %20 ]
  %gep = getelementptr %struct.Gia_Obj_t_, ptr %invariant.gep, i64 %indvars.iv31
  %.val21 = load i64, ptr %gep, align 4
  %22 = and i64 %.val21, 2147483648
  %.not.i = icmp eq i64 %22, 0
  %23 = and i64 %.val21, 536870911
  %24 = icmp eq i64 %23, 536870911
  %narrow.i22.not = or i1 %.not.i, %24
  br i1 %narrow.i22.not, label %.loopexit, label %20

.loopexit:                                        ; preds = %6, %21, %20, %9
  %.014 = phi i32 [ 1, %9 ], [ 0, %21 ], [ 1, %20 ], [ 0, %6 ]
  ret i32 %.014
}